target datalayout = "e-m:e-p270:32:32-p271:32:32-p272:64:64-i64:64-i128:128-f80:128-n8:16:32:64-S128"
target triple = "x86_64-pc-linux-gnu"

%struct.expert_field = type { i32, i32 }

@ett_samples_sample_set_ranges = internal global i32 0, align 4
@hf_samples_sample_set_ranges = internal global i32 0, align 4
@hf_samples_sample_set_sample_1 = internal global i32 0, align 4
@hf_samples_sample_set_sample_2 = internal global i32 0, align 4
@hf_samples_sample_set_sample_3 = internal global i32 0, align 4
@hf_samples_sample_set_sample_4 = internal global i32 0, align 4
@hf_samples_sample_set_sample_5 = internal global i32 0, align 4
@hf_samples_sample_set_sample_6 = internal global i32 0, align 4
@hf_samples_sample_set_sample_7 = internal global i32 0, align 4
@hf_samples_sample_set_sample_8 = internal global i32 0, align 4
@ei_samples_ranges_sample_1_invalid = internal global %struct.expert_field zeroinitializer, align 4
@ei_samples_ranges_sample_2_invalid = internal global %struct.expert_field zeroinitializer, align 4
@ei_samples_ranges_sample_3_invalid = internal global %struct.expert_field zeroinitializer, align 4
@ei_samples_ranges_sample_4_invalid = internal global %struct.expert_field zeroinitializer, align 4
@ei_samples_ranges_sample_5_invalid = internal global %struct.expert_field zeroinitializer, align 4
@ei_samples_ranges_sample_6_invalid = internal global %struct.expert_field zeroinitializer, align 4
@ei_samples_ranges_sample_7_invalid = internal global %struct.expert_field zeroinitializer, align 4
@ei_samples_ranges_sample_8_invalid = internal global %struct.expert_field zeroinitializer, align 4

; Function Attrs: null_pointer_is_valid sspstrong uwtable
define internal void @check_ranges(ptr noundef %0, ptr noundef %1, i32 noundef %2, ptr noundef %3) #0 {
  %5 = alloca ptr, align 8
  %6 = alloca ptr, align 8
  %7 = alloca i32, align 4
  %8 = alloca ptr, align 8
  %9 = alloca i16, align 2
  store ptr %0, ptr %5, align 8
  store ptr %1, ptr %6, align 8
  store i32 %2, ptr %7, align 4
  store ptr %3, ptr %8, align 8
  call void @llvm.lifetime.start.p0(i64 2, ptr %9) #6
  %10 = load ptr, ptr %5, align 8
  %11 = load i32, ptr %7, align 4
  %12 = call zeroext i16 @tvb_get_uint16(ptr noundef %10, i32 noundef %11, i32 noundef 0)
  store i16 %12, ptr %9, align 2
  %13 = load i16, ptr %9, align 2
  %14 = zext i16 %13 to i32
  %15 = and i32 %14, 49152
  %16 = icmp eq i32 %15, 49152
  br i1 %16, label %17, label %21

17:                                               ; preds = %4
  %18 = load ptr, ptr %6, align 8
  %19 = load ptr, ptr %8, align 8
  %20 = call ptr @expert_add_info(ptr noundef %18, ptr noundef %19, ptr noundef @ei_samples_ranges_sample_8_invalid)
  br label %21

21:                                               ; preds = %17, %4
  %22 = load i16, ptr %9, align 2
  %23 = zext i16 %22 to i32
  %24 = and i32 %23, 12288
  %25 = icmp eq i32 %24, 12288
  br i1 %25, label %26, label %30

26:                                               ; preds = %21
  %27 = load ptr, ptr %6, align 8
  %28 = load ptr, ptr %8, align 8
  %29 = call ptr @expert_add_info(ptr noundef %27, ptr noundef %28, ptr noundef @ei_samples_ranges_sample_7_invalid)
  br label %30

30:                                               ; preds = %26, %21
  %31 = load i16, ptr %9, align 2
  %32 = zext i16 %31 to i32
  %33 = and i32 %32, 3072
  %34 = icmp eq i32 %33, 3072
  br i1 %34, label %35, label %39

35:                                               ; preds = %30
  %36 = load ptr, ptr %6, align 8
  %37 = load ptr, ptr %8, align 8
  %38 = call ptr @expert_add_info(ptr noundef %36, ptr noundef %37, ptr noundef @ei_samples_ranges_sample_6_invalid)
  br label %39

39:                                               ; preds = %35, %30
  %40 = load i16, ptr %9, align 2
  %41 = zext i16 %40 to i32
  %42 = and i32 %41, 768
  %43 = icmp eq i32 %42, 768
  br i1 %43, label %44, label %48

44:                                               ; preds = %39
  %45 = load ptr, ptr %6, align 8
  %46 = load ptr, ptr %8, align 8
  %47 = call ptr @expert_add_info(ptr noundef %45, ptr noundef %46, ptr noundef @ei_samples_ranges_sample_5_invalid)
  br label %48

48:                                               ; preds = %44, %39
  %49 = load i16, ptr %9, align 2
  %50 = zext i16 %49 to i32
  %51 = and i32 %50, 192
  %52 = icmp eq i32 %51, 192
  br i1 %52, label %53, label %57

53:                                               ; preds = %48
  %54 = load ptr, ptr %6, align 8
  %55 = load ptr, ptr %8, align 8
  %56 = call ptr @expert_add_info(ptr noundef %54, ptr noundef %55, ptr noundef @ei_samples_ranges_sample_4_invalid)
  br label %57

57:                                               ; preds = %53, %48
  %58 = load i16, ptr %9, align 2
  %59 = zext i16 %58 to i32
  %60 = and i32 %59, 48
  %61 = icmp eq i32 %60, 48
  br i1 %61, label %62, label %66

62:                                               ; preds = %57
  %63 = load ptr, ptr %6, align 8
  %64 = load ptr, ptr %8, align 8
  %65 = call ptr @expert_add_info(ptr noundef %63, ptr noundef %64, ptr noundef @ei_samples_ranges_sample_3_invalid)
  br label %66

66:                                               ; preds = %62, %57
  %67 = load i16, ptr %9, align 2
  %68 = zext i16 %67 to i32
  %69 = and i32 %68, 12
  %70 = icmp eq i32 %69, 12
  br i1 %70, label %71, label %75

71:                                               ; preds = %66
  %72 = load ptr, ptr %6, align 8
  %73 = load ptr, ptr %8, align 8
  %74 = call ptr @expert_add_info(ptr noundef %72, ptr noundef %73, ptr noundef @ei_samples_ranges_sample_2_invalid)
  br label %75

75:                                               ; preds = %71, %66
  %76 = load i16, ptr %9, align 2
  %77 = zext i16 %76 to i32
  %78 = and i32 %77, 3
  %79 = icmp eq i32 %78, 3
  br i1 %79, label %80, label %84

80:                                               ; preds = %75
  %81 = load ptr, ptr %6, align 8
  %82 = load ptr, ptr %8, align 8
  %83 = call ptr @expert_add_info(ptr noundef %81, ptr noundef %82, ptr noundef @ei_samples_ranges_sample_1_invalid)
  br label %84

84:                                               ; preds = %80, %75
  call void @llvm.lifetime.end.p0(i64 2, ptr %9) #6
  ret void
}

; Function Attrs: null_pointer_is_valid sspstrong uwtable
define internal void @add_sample_set(ptr noundef %0, ptr noundef %1, ptr noundef %2, i32 noundef %3, ptr noundef %4) #0 {
  %6 = alloca ptr, align 8
  %7 = alloca ptr, align 8
  %8 = alloca ptr, align 8
  %9 = alloca i32, align 4
  %10 = alloca ptr, align 8
  %11 = alloca i32, align 4
  %12 = alloca ptr, align 8
  %13 = alloca ptr, align 8
  %14 = alloca ptr, align 8
  %15 = alloca [8 x i32], align 16
  %16 = alloca i32, align 4
  store ptr %0, ptr %6, align 8
  store ptr %1, ptr %7, align 8
  store ptr %2, ptr %8, align 8
  store i32 %3, ptr %9, align 4
  store ptr %4, ptr %10, align 8
  call void @llvm.lifetime.start.p0(i64 4, ptr %11) #6
  store i32 34, ptr %11, align 4
  %17 = load ptr, ptr %6, align 8
  %18 = load ptr, ptr %8, align 8
  %19 = load i32, ptr %18, align 4
  %20 = load i32, ptr %11, align 4
  call void @tvb_ensure_bytes_exist(ptr noundef %17, i32 noundef %19, i32 noundef %20)
  call void @llvm.lifetime.start.p0(i64 8, ptr %12) #6
  %21 = load ptr, ptr %10, align 8
  %22 = load i32, ptr %9, align 4
  %23 = load ptr, ptr %6, align 8
  %24 = load ptr, ptr %8, align 8
  %25 = load i32, ptr %24, align 4
  %26 = load i32, ptr %11, align 4
  %27 = call ptr @proto_tree_add_item(ptr noundef %21, i32 noundef %22, ptr noundef %23, i32 noundef %25, i32 noundef %26, i32 noundef 0)
  store ptr %27, ptr %12, align 8
  call void @llvm.lifetime.start.p0(i64 8, ptr %13) #6
  %28 = load ptr, ptr %12, align 8
  %29 = load i32, ptr @ett_samples_sample_set_ranges, align 4
  %30 = call ptr @proto_item_add_subtree(ptr noundef %28, i32 noundef %29)
  store ptr %30, ptr %13, align 8
  store i32 2, ptr %11, align 4
  %31 = load ptr, ptr %6, align 8
  %32 = load ptr, ptr %8, align 8
  %33 = load i32, ptr %32, align 4
  %34 = load i32, ptr %11, align 4
  call void @tvb_ensure_bytes_exist(ptr noundef %31, i32 noundef %33, i32 noundef %34)
  call void @llvm.lifetime.start.p0(i64 8, ptr %14) #6
  %35 = load ptr, ptr %13, align 8
  %36 = load ptr, ptr %6, align 8
  %37 = load ptr, ptr %8, align 8
  %38 = load i32, ptr %37, align 4
  %39 = load i32, ptr @hf_samples_sample_set_ranges, align 4
  %40 = load i32, ptr @ett_samples_sample_set_ranges, align 4
  %41 = call ptr @proto_tree_add_bitmask(ptr noundef %35, ptr noundef %36, i32 noundef %38, i32 noundef %39, i32 noundef %40, ptr noundef @rangesBits, i32 noundef 0)
  store ptr %41, ptr %14, align 8
  %42 = load ptr, ptr %6, align 8
  %43 = load ptr, ptr %7, align 8
  %44 = load ptr, ptr %8, align 8
  %45 = load i32, ptr %44, align 4
  %46 = load ptr, ptr %14, align 8
  call void @check_ranges(ptr noundef %42, ptr noundef %43, i32 noundef %45, ptr noundef %46)
  %47 = load i32, ptr %11, align 4
  %48 = load ptr, ptr %8, align 8
  %49 = load i32, ptr %48, align 4
  %50 = add i32 %49, %47
  store i32 %50, ptr %48, align 4
  call void @llvm.lifetime.start.p0(i64 32, ptr %15) #6
  %51 = load i32, ptr @hf_samples_sample_set_sample_1, align 4
  store i32 %51, ptr %15, align 4
  %52 = getelementptr inbounds i32, ptr %15, i64 1
  %53 = load i32, ptr @hf_samples_sample_set_sample_2, align 4
  store i32 %53, ptr %52, align 4
  %54 = getelementptr inbounds i32, ptr %15, i64 2
  %55 = load i32, ptr @hf_samples_sample_set_sample_3, align 4
  store i32 %55, ptr %54, align 4
  %56 = getelementptr inbounds i32, ptr %15, i64 3
  %57 = load i32, ptr @hf_samples_sample_set_sample_4, align 4
  store i32 %57, ptr %56, align 4
  %58 = getelementptr inbounds i32, ptr %15, i64 4
  %59 = load i32, ptr @hf_samples_sample_set_sample_5, align 4
  store i32 %59, ptr %58, align 4
  %60 = getelementptr inbounds i32, ptr %15, i64 5
  %61 = load i32, ptr @hf_samples_sample_set_sample_6, align 4
  store i32 %61, ptr %60, align 4
  %62 = getelementptr inbounds i32, ptr %15, i64 6
  %63 = load i32, ptr @hf_samples_sample_set_sample_7, align 4
  store i32 %63, ptr %62, align 4
  %64 = getelementptr inbounds i32, ptr %15, i64 7
  %65 = load i32, ptr @hf_samples_sample_set_sample_8, align 4
  store i32 %65, ptr %64, align 4
  store i32 4, ptr %11, align 4
  call void @llvm.lifetime.start.p0(i64 4, ptr %16) #6
  store i32 0, ptr %16, align 4
  br label %66

66:                                               ; preds = %90, %5
  %67 = load i32, ptr %16, align 4
  %68 = zext i32 %67 to i64
  %69 = icmp ult i64 %68, 8
  br i1 %69, label %71, label %70

70:                                               ; preds = %66
  call void @llvm.lifetime.end.p0(i64 4, ptr %16) #6
  br label %93

71:                                               ; preds = %66
  %72 = load ptr, ptr %6, align 8
  %73 = load ptr, ptr %8, align 8
  %74 = load i32, ptr %73, align 4
  %75 = load i32, ptr %11, align 4
  call void @tvb_ensure_bytes_exist(ptr noundef %72, i32 noundef %74, i32 noundef %75)
  %76 = load ptr, ptr %13, align 8
  %77 = load i32, ptr %16, align 4
  %78 = zext i32 %77 to i64
  %79 = getelementptr [8 x i32], ptr %15, i64 0, i64 %78
  %80 = load i32, ptr %79, align 4
  %81 = load ptr, ptr %6, align 8
  %82 = load ptr, ptr %8, align 8
  %83 = load i32, ptr %82, align 4
  %84 = load i32, ptr %11, align 4
  %85 = call ptr @proto_tree_add_item(ptr noundef %76, i32 noundef %80, ptr noundef %81, i32 noundef %83, i32 noundef %84, i32 noundef 0)
  %86 = load i32, ptr %11, align 4
  %87 = load ptr, ptr %8, align 8
  %88 = load i32, ptr %87, align 4
  %89 = add i32 %88, %86
  store i32 %89, ptr %87, align 4
  br label %90

90:                                               ; preds = %71
  %91 = load i32, ptr %16, align 4
  %92 = add i32 %91, 1
  store i32 %92, ptr %16, align 4
  br label %66, !llvm.loop !13

93:                                               ; preds = %70
  call void @llvm.lifetime.end.p0(i64 32, ptr %15) #6
  call void @llvm.lifetime.end.p0(i64 8, ptr %14) #6
  call void @llvm.lifetime.end.p0(i64 8, ptr %13) #6
  call void @llvm.lifetime.end.p0(i64 8, ptr %12) #6
  call void @llvm.lifetime.end.p0(i64 4, ptr %11) #6
  ret void
}

; Function Attrs: null_pointer_is_valid sspstrong uwtable
define internal void @add_sample_sets(ptr noundef %0, ptr noundef %1, ptr noundef %2, ptr noundef %3, i32 noundef %4, ptr noundef %5) #0 {
  %7 = alloca ptr, align 8
  %8 = alloca ptr, align 8
  %9 = alloca ptr, align 8
  %10 = alloca ptr, align 8
  %11 = alloca i32, align 4
  %12 = alloca ptr, align 8
  %13 = alloca i32, align 4
  store ptr %0, ptr %7, align 8
  store ptr %1, ptr %8, align 8
  store ptr %2, ptr %9, align 8
  store ptr %3, ptr %10, align 8
  store i32 %4, ptr %11, align 4
  store ptr %5, ptr %12, align 8
  call void @llvm.lifetime.start.p0(i64 4, ptr %13) #6
  store i32 0, ptr %13, align 4
  br label %14

14:                                               ; preds = %29, %6
  %15 = load i32, ptr %13, align 4
  %16 = load i32, ptr %11, align 4
  %17 = icmp ult i32 %15, %16
  br i1 %17, label %19, label %18

18:                                               ; preds = %14
  call void @llvm.lifetime.end.p0(i64 4, ptr %13) #6
  br label %32

19:                                               ; preds = %14
  %20 = load ptr, ptr %7, align 8
  %21 = load ptr, ptr %8, align 8
  %22 = load ptr, ptr %9, align 8
  %23 = load ptr, ptr %10, align 8
  %24 = load i32, ptr %13, align 4
  %25 = zext i32 %24 to i64
  %26 = getelementptr i32, ptr %23, i64 %25
  %27 = load i32, ptr %26, align 4
  %28 = load ptr, ptr %12, align 8
  call void @add_sample_set(ptr noundef %20, ptr noundef %21, ptr noundef %22, i32 noundef %27, ptr noundef %28)
  br label %29

29:                                               ; preds = %19
  %30 = load i32, ptr %13, align 4
  %31 = add i32 %30, 1
  store i32 %31, ptr %13, align 4
  br label %14, !llvm.loop !10

32:                                               ; preds = %18
  ret void
}