; Function Attrs: null_pointer_is_valid sspstrong uwtable
define internal fastcc void @add_sample_sets(ptr noundef %0, ptr noundef %1, ptr noundef captures(none) %2, ptr noundef readonly captures(none) %3, i32 noundef range(i32 6, 9) %4, ptr noundef %5) unnamed_addr #0 {
  %7 = alloca [8 x i32], align 16
  %8 = getelementptr inbounds nuw i8, ptr %7, i64 4
  %9 = getelementptr inbounds nuw i8, ptr %7, i64 8
  %10 = getelementptr inbounds nuw i8, ptr %7, i64 12
  %11 = getelementptr inbounds nuw i8, ptr %7, i64 16
  %12 = getelementptr inbounds nuw i8, ptr %7, i64 20
  %13 = getelementptr inbounds nuw i8, ptr %7, i64 24
  %14 = getelementptr inbounds nuw i8, ptr %7, i64 28
  %wide.trip.count = zext nneg i32 %4 to i64
  %.pre = load i32, ptr %2, align 4
  br label %16

15:                                               ; preds = %add_sample_set.exit
  ret void

16:                                               ; preds = %6, %add_sample_set.exit
  %17 = phi i32 [ %.pre, %6 ], [ %88, %add_sample_set.exit ]
  %indvars.iv = phi i64 [ 0, %6 ], [ %indvars.iv.next, %add_sample_set.exit ]
  %18 = getelementptr i32, ptr %3, i64 %indvars.iv
  %19 = load i32, ptr %18, align 4
  tail call void @tvb_ensure_bytes_exist(ptr noundef %0, i32 noundef %17, i32 noundef 34)
  %20 = load i32, ptr %2, align 4
  %21 = tail call ptr @proto_tree_add_item(ptr noundef %5, i32 noundef %19, ptr noundef %0, i32 noundef %20, i32 noundef 34, i32 noundef 0)
  %22 = load i32, ptr @ett_samples_sample_set_ranges, align 4
  %23 = tail call ptr @proto_item_add_subtree(ptr noundef %21, i32 noundef %22)
  %24 = load i32, ptr %2, align 4
  tail call void @tvb_ensure_bytes_exist(ptr noundef %0, i32 noundef %24, i32 noundef 2)
  %25 = load i32, ptr %2, align 4
  %26 = load i32, ptr @hf_samples_sample_set_ranges, align 4
  %27 = load i32, ptr @ett_samples_sample_set_ranges, align 4
  %28 = tail call ptr @proto_tree_add_bitmask(ptr noundef %23, ptr noundef %0, i32 noundef %25, i32 noundef %26, i32 noundef %27, ptr noundef nonnull @rangesBits, i32 noundef 0)
  %29 = load i32, ptr %2, align 4
  %30 = tail call zeroext i16 @tvb_get_uint16(ptr noundef %0, i32 noundef %29, i32 noundef 0)
  %31 = zext i16 %30 to i32
  %32 = and i32 %31, 49152
  %33 = icmp eq i32 %32, 49152
  br i1 %33, label %34, label %36

34:                                               ; preds = %16
  %35 = tail call ptr @expert_add_info(ptr noundef %1, ptr noundef %28, ptr noundef nonnull @ei_samples_ranges_sample_8_invalid)
  br label %36

36:                                               ; preds = %34, %16
  %37 = and i32 %31, 12288
  %38 = icmp eq i32 %37, 12288
  br i1 %38, label %39, label %41

39:                                               ; preds = %36
  %40 = tail call ptr @expert_add_info(ptr noundef %1, ptr noundef %28, ptr noundef nonnull @ei_samples_ranges_sample_7_invalid)
  br label %41

41:                                               ; preds = %39, %36
  %42 = and i32 %31, 3072
  %43 = icmp eq i32 %42, 3072
  br i1 %43, label %44, label %46

44:                                               ; preds = %41
  %45 = tail call ptr @expert_add_info(ptr noundef %1, ptr noundef %28, ptr noundef nonnull @ei_samples_ranges_sample_6_invalid)
  br label %46

46:                                               ; preds = %44, %41
  %47 = and i32 %31, 768
  %48 = icmp eq i32 %47, 768
  br i1 %48, label %49, label %51

49:                                               ; preds = %46
  %50 = tail call ptr @expert_add_info(ptr noundef %1, ptr noundef %28, ptr noundef nonnull @ei_samples_ranges_sample_5_invalid)
  br label %51

51:                                               ; preds = %49, %46
  %52 = and i32 %31, 192
  %53 = icmp eq i32 %52, 192
  br i1 %53, label %54, label %56

54:                                               ; preds = %51
  %55 = tail call ptr @expert_add_info(ptr noundef %1, ptr noundef %28, ptr noundef nonnull @ei_samples_ranges_sample_4_invalid)
  br label %56

56:                                               ; preds = %54, %51
  %57 = and i32 %31, 48
  %58 = icmp eq i32 %57, 48
  br i1 %58, label %59, label %61

59:                                               ; preds = %56
  %60 = tail call ptr @expert_add_info(ptr noundef %1, ptr noundef %28, ptr noundef nonnull @ei_samples_ranges_sample_3_invalid)
  br label %61

61:                                               ; preds = %59, %56
  %62 = and i32 %31, 12
  %63 = icmp eq i32 %62, 12
  br i1 %63, label %64, label %66

64:                                               ; preds = %61
  %65 = tail call ptr @expert_add_info(ptr noundef %1, ptr noundef %28, ptr noundef nonnull @ei_samples_ranges_sample_2_invalid)
  br label %66

66:                                               ; preds = %64, %61
  %67 = and i32 %31, 3
  %68 = icmp eq i32 %67, 3
  br i1 %68, label %69, label %check_ranges.exit.i

69:                                               ; preds = %66
  %70 = tail call ptr @expert_add_info(ptr noundef %1, ptr noundef %28, ptr noundef nonnull @ei_samples_ranges_sample_1_invalid)
  br label %check_ranges.exit.i

check_ranges.exit.i:                              ; preds = %69, %66
  %71 = load i32, ptr %2, align 4
  %72 = add i32 %71, 2
  store i32 %72, ptr %2, align 4
  call void @llvm.lifetime.start.p0(i64 32, ptr nonnull %7) #8
  %73 = load i32, ptr @hf_samples_sample_set_sample_1, align 4
  store i32 %73, ptr %7, align 16
  %74 = load i32, ptr @hf_samples_sample_set_sample_2, align 4
  store i32 %74, ptr %8, align 4
  %75 = load i32, ptr @hf_samples_sample_set_sample_3, align 4
  store i32 %75, ptr %9, align 8
  %76 = load i32, ptr @hf_samples_sample_set_sample_4, align 4
  store i32 %76, ptr %10, align 4
  %77 = load i32, ptr @hf_samples_sample_set_sample_5, align 4
  store i32 %77, ptr %11, align 16
  %78 = load i32, ptr @hf_samples_sample_set_sample_6, align 4
  store i32 %78, ptr %12, align 4
  %79 = load i32, ptr @hf_samples_sample_set_sample_7, align 4
  store i32 %79, ptr %13, align 8
  %80 = load i32, ptr @hf_samples_sample_set_sample_8, align 4
  store i32 %80, ptr %14, align 4
  br label %81

81:                                               ; preds = %81, %check_ranges.exit.i
  %82 = phi i32 [ %72, %check_ranges.exit.i ], [ %88, %81 ]
  %indvars.iv.i = phi i64 [ 0, %check_ranges.exit.i ], [ %indvars.iv.next.i, %81 ]
  tail call void @tvb_ensure_bytes_exist(ptr noundef %0, i32 noundef %82, i32 noundef 4)
  %83 = getelementptr [8 x i32], ptr %7, i64 0, i64 %indvars.iv.i
  %84 = load i32, ptr %83, align 4
  %85 = load i32, ptr %2, align 4
  %86 = tail call ptr @proto_tree_add_item(ptr noundef %23, i32 noundef %84, ptr noundef %0, i32 noundef %85, i32 noundef 4, i32 noundef 0)
  %87 = load i32, ptr %2, align 4
  %88 = add i32 %87, 4
  store i32 %88, ptr %2, align 4
  %indvars.iv.next.i = add nuw nsw i64 %indvars.iv.i, 1
  %exitcond.not.i = icmp eq i64 %indvars.iv.next.i, 8
  br i1 %exitcond.not.i, label %add_sample_set.exit, label %81, !llvm.loop !9

add_sample_set.exit:                              ; preds = %81
  call void @llvm.lifetime.end.p0(i64 32, ptr nonnull %7) #8
  %indvars.iv.next = add nuw nsw i64 %indvars.iv, 1
  %exitcond.not = icmp eq i64 %indvars.iv.next, %wide.trip.count
  br i1 %exitcond.not, label %15, label %16, !llvm.loop !10
}